; Function Attrs: nounwind uwtable
define dso_local i64 @row_to_json_pretty(ptr noundef readonly captures(none) %0) local_unnamed_addr #0 {
  %2 = getelementptr inbounds nuw i8, ptr %0, i64 32
  %3 = load i64, ptr %2, align 8
  %4 = getelementptr inbounds nuw i8, ptr %0, i64 48
  %5 = load i64, ptr %4, align 8
  %6 = icmp ne i64 %5, 0
  %7 = tail call ptr @makeStringInfo() #10
  tail call fastcc void @composite_to_json(i64 noundef %3, ptr noundef %7, i1 noundef zeroext %6)
  %8 = load ptr, ptr %7, align 8
  %9 = getelementptr inbounds nuw i8, ptr %7, i64 8
  %10 = load i32, ptr %9, align 8
  %11 = tail call ptr @cstring_to_text_with_len(ptr noundef %8, i32 noundef %10) #10
  %12 = ptrtoint ptr %11 to i64
  ret i64 %12
}